target datalayout = "e-m:e-p270:32:32-p271:32:32-p272:64:64-i64:64-i128:128-f80:128-n8:16:32:64-S128"
target triple = "x86_64-pc-linux-gnu"

%struct.formnode = type { i16, i16, i16, i32, i32, i32, i32, i16, i16, i16, i32, ptr, ptr, ptr, ptr, ptr, ptr, ptr, ptr, ptr, ptr, ptr }
%struct.fieldnode = type { i16, i16, i16, i16, i16, i32, i32, i32, i32, i16, i16, i16, i16, i32, i32, i32, i32, ptr, ptr, ptr, ptr, ptr, ptr, ptr, ptr }

; Function Attrs: nounwind uwtable
define internal i32 @IFN_Next_Character(ptr noundef %0) #0 {
  %2 = alloca i32, align 4
  %3 = alloca ptr, align 8
  %4 = alloca ptr, align 8
  %5 = alloca i32, align 4
  store ptr %0, ptr %3, align 8, !tbaa !4
  call void @llvm.lifetime.start.p0(i64 8, ptr %4) #9
  %6 = load ptr, ptr %3, align 8, !tbaa !4
  %7 = getelementptr inbounds nuw %struct.formnode, ptr %6, i32 0, i32 15
  %8 = load ptr, ptr %7, align 8, !tbaa !16
  store ptr %8, ptr %4, align 8, !tbaa !17
  %9 = load ptr, ptr %3, align 8, !tbaa !4
  %10 = getelementptr inbounds nuw %struct.formnode, ptr %9, i32 0, i32 4
  %11 = load i32, ptr %10, align 4, !tbaa !22
  %12 = add nsw i32 %11, 1
  store i32 %12, ptr %10, align 4, !tbaa !22
  %13 = load ptr, ptr %4, align 8, !tbaa !17
  %14 = getelementptr inbounds nuw %struct.fieldnode, ptr %13, i32 0, i32 6
  %15 = load i32, ptr %14, align 8, !tbaa !29
  %16 = icmp eq i32 %12, %15
  br i1 %16, label %17, label %68

17:                                               ; preds = %1
  %18 = load ptr, ptr %3, align 8, !tbaa !4
  %19 = getelementptr inbounds nuw %struct.formnode, ptr %18, i32 0, i32 3
  %20 = load i32, ptr %19, align 8, !tbaa !21
  %21 = add nsw i32 %20, 1
  store i32 %21, ptr %19, align 8, !tbaa !21
  %22 = load ptr, ptr %4, align 8, !tbaa !17
  %23 = getelementptr inbounds nuw %struct.fieldnode, ptr %22, i32 0, i32 5
  %24 = load i32, ptr %23, align 4, !tbaa !27
  %25 = icmp eq i32 %21, %24
  br i1 %25, label %26, label %65

26:                                               ; preds = %17
  %27 = load ptr, ptr %4, align 8, !tbaa !17
  %28 = getelementptr inbounds nuw %struct.fieldnode, ptr %27, i32 0, i32 1
  %29 = load i16, ptr %28, align 2, !tbaa !28
  %30 = sext i16 %29 to i32
  %31 = load ptr, ptr %4, align 8, !tbaa !17
  %32 = getelementptr inbounds nuw %struct.fieldnode, ptr %31, i32 0, i32 8
  %33 = load i32, ptr %32, align 8, !tbaa !36
  %34 = add nsw i32 %30, %33
  %35 = icmp eq i32 %34, 1
  br i1 %35, label %42, label %36

36:                                               ; preds = %26
  %37 = load ptr, ptr %4, align 8, !tbaa !17
  %38 = call zeroext i1 @Field_Grown(ptr noundef %37, i32 noundef 1)
  br i1 %38, label %39, label %42

39:                                               ; preds = %36
  %40 = load ptr, ptr %3, align 8, !tbaa !4
  %41 = getelementptr inbounds nuw %struct.formnode, ptr %40, i32 0, i32 4
  store i32 0, ptr %41, align 4, !tbaa !22
  store i32 0, ptr %2, align 4
  store i32 1, ptr %5, align 4
  br label %69

42:                                               ; preds = %36, %26
  %43 = load ptr, ptr %3, align 8, !tbaa !4
  %44 = getelementptr inbounds nuw %struct.formnode, ptr %43, i32 0, i32 3
  %45 = load i32, ptr %44, align 8, !tbaa !21
  %46 = add nsw i32 %45, -1
  store i32 %46, ptr %44, align 8, !tbaa !21
  %47 = load ptr, ptr %4, align 8, !tbaa !17
  %48 = getelementptr inbounds nuw %struct.fieldnode, ptr %47, i32 0, i32 1
  %49 = load i16, ptr %48, align 2, !tbaa !28
  %50 = sext i16 %49 to i32
  %51 = load ptr, ptr %4, align 8, !tbaa !17
  %52 = getelementptr inbounds nuw %struct.fieldnode, ptr %51, i32 0, i32 8
  %53 = load i32, ptr %52, align 8, !tbaa !36
  %54 = add nsw i32 %50, %53
  %55 = icmp eq i32 %54, 1
  br i1 %55, label %56, label %60

56:                                               ; preds = %42
  %57 = load ptr, ptr %4, align 8, !tbaa !17
  %58 = call zeroext i1 @Field_Grown(ptr noundef %57, i32 noundef 1)
  br i1 %58, label %59, label %60

59:                                               ; preds = %56
  store i32 0, ptr %2, align 4
  store i32 1, ptr %5, align 4
  br label %69

60:                                               ; preds = %56, %42
  %61 = load ptr, ptr %3, align 8, !tbaa !4
  %62 = getelementptr inbounds nuw %struct.formnode, ptr %61, i32 0, i32 4
  %63 = load i32, ptr %62, align 4, !tbaa !22
  %64 = add nsw i32 %63, -1
  store i32 %64, ptr %62, align 4, !tbaa !22
  store i32 -12, ptr %2, align 4
  store i32 1, ptr %5, align 4
  br label %69

65:                                               ; preds = %17
  %66 = load ptr, ptr %3, align 8, !tbaa !4
  %67 = getelementptr inbounds nuw %struct.formnode, ptr %66, i32 0, i32 4
  store i32 0, ptr %67, align 4, !tbaa !22
  br label %68

68:                                               ; preds = %65, %1
  store i32 0, ptr %2, align 4
  store i32 1, ptr %5, align 4
  br label %69

69:                                               ; preds = %68, %60, %59, %39
  call void @llvm.lifetime.end.p0(i64 8, ptr %4) #9
  %70 = load i32, ptr %2, align 4
  ret i32 %70
}