; Function Attrs: nounwind uwtable
define internal range(i32 -12, 1) i32 @IFN_Next_Character(ptr noundef captures(none) %0) #0 {
  %2 = getelementptr inbounds nuw i8, ptr %0, i64 72
  %3 = load ptr, ptr %2, align 8, !tbaa !14
  %4 = getelementptr inbounds nuw i8, ptr %0, i64 12
  %5 = load i32, ptr %4, align 4, !tbaa !18
  %6 = add nsw i32 %5, 1
  store i32 %6, ptr %4, align 4, !tbaa !18
  %7 = getelementptr inbounds nuw i8, ptr %3, i64 16
  %8 = load i32, ptr %7, align 8, !tbaa !26
  %9 = icmp eq i32 %6, %8
  br i1 %9, label %10, label %38

10:                                               ; preds = %1
  %11 = getelementptr inbounds nuw i8, ptr %0, i64 8
  %12 = load i32, ptr %11, align 8, !tbaa !17
  %13 = add nsw i32 %12, 1
  store i32 %13, ptr %11, align 8, !tbaa !17
  %14 = getelementptr inbounds nuw i8, ptr %3, i64 12
  %15 = load i32, ptr %14, align 4, !tbaa !24
  %16 = icmp eq i32 %13, %15
  br i1 %16, label %17, label %.sink.split

17:                                               ; preds = %10
  %18 = getelementptr inbounds nuw i8, ptr %3, i64 2
  %19 = load i16, ptr %18, align 2, !tbaa !25
  %20 = sext i16 %19 to i32
  %21 = getelementptr inbounds nuw i8, ptr %3, i64 24
  %22 = load i32, ptr %21, align 8, !tbaa !33
  %23 = add nsw i32 %22, %20
  %24 = icmp eq i32 %23, 1
  br i1 %24, label %28, label %25

25:                                               ; preds = %17
  %26 = tail call fastcc zeroext i1 @Field_Grown(ptr noundef nonnull %3, i32 noundef 1)
  br i1 %26, label %.sink.split, label %._crit_edge

._crit_edge:                                      ; preds = %25
  %.pre = load i32, ptr %11, align 8, !tbaa !17
  %.pre15 = load i16, ptr %18, align 2, !tbaa !25
  %.pre16 = load i32, ptr %21, align 8, !tbaa !33
  %.pre17 = sext i16 %.pre15 to i32
  %27 = add nsw i32 %.pre, -1
  br label %28

28:                                               ; preds = %._crit_edge, %17
  %.pre-phi = phi i32 [ %.pre17, %._crit_edge ], [ %20, %17 ]
  %29 = phi i32 [ %.pre16, %._crit_edge ], [ %22, %17 ]
  %30 = phi i32 [ %27, %._crit_edge ], [ %12, %17 ]
  store i32 %30, ptr %11, align 8, !tbaa !17
  %31 = add nsw i32 %29, %.pre-phi
  %32 = icmp eq i32 %31, 1
  br i1 %32, label %33, label %35

33:                                               ; preds = %28
  %34 = tail call fastcc zeroext i1 @Field_Grown(ptr noundef nonnull %3, i32 noundef 1)
  br i1 %34, label %38, label %35

35:                                               ; preds = %33, %28
  %36 = load i32, ptr %4, align 4, !tbaa !18
  %37 = add nsw i32 %36, -1
  br label %.sink.split

.sink.split:                                      ; preds = %10, %25, %35
  %.sink = phi i32 [ %37, %35 ], [ 0, %25 ], [ 0, %10 ]
  %.0.ph = phi i32 [ -12, %35 ], [ 0, %25 ], [ 0, %10 ]
  store i32 %.sink, ptr %4, align 4, !tbaa !18
  br label %38

38:                                               ; preds = %.sink.split, %1, %33
  %.0 = phi i32 [ 0, %33 ], [ 0, %1 ], [ %.0.ph, %.sink.split ]
  ret i32 %.0
}